target datalayout = "e-m:e-p270:32:32-p271:32:32-p272:64:64-i64:64-i128:128-f80:128-n8:16:32:64-S128"
target triple = "x86_64-pc-linux-gnu"

%struct.lua_State = type { %struct.GCRef, i8, i8, i8, i8, %struct.MRef, %struct.GCRef, ptr, ptr, %struct.MRef, %struct.MRef, %struct.GCRef, %struct.GCRef, ptr, i32 }
%struct.MRef = type { i64 }
%struct.GCRef = type { i64 }
%union.TValue = type { i64 }
%struct.global_State = type { ptr, ptr, %struct.GCState, %struct.GCstr, i8, i8, i8, i8, %struct.StrInternState, i32, %struct.GCRef, %struct.SBuf, %union.TValue, %union.TValue, %struct.Node, %union.TValue, %struct.GCupval, i32, i32, ptr, ptr, ptr, i32, i32, %struct.GCRef, %struct.MRef, %struct.MRef, %struct.PRNGState, [39 x %struct.GCRef] }
%struct.GCState = type { i64, i64, i8, i8, i8, i8, i32, %struct.GCRef, %struct.MRef, %struct.GCRef, %struct.GCRef, %struct.GCRef, %struct.GCRef, i64, i64, i32, i32, %struct.MRef }
%struct.GCstr = type { %struct.GCRef, i8, i8, i8, i8, i32, i32, i32 }
%struct.StrInternState = type { ptr, i32, i32, i32, i8, i8, i8, i8, i64 }
%struct.SBuf = type { ptr, ptr, ptr, %struct.MRef }
%struct.Node = type { %union.TValue, %union.TValue, %struct.MRef }
%struct.GCupval = type { %struct.GCRef, i8, i8, i8, i8, %union.anon, %struct.MRef, i32 }
%union.anon = type { %struct.anon.1 }
%struct.anon.1 = type { %struct.GCRef, %struct.GCRef }
%struct.PRNGState = type { [4 x i64] }
%struct.GCfuncC = type { %struct.GCRef, i8, i8, i8, i8, %struct.GCRef, %struct.GCRef, %struct.MRef, ptr, [1 x %union.TValue] }

@.str = private unnamed_addr constant [23 x i8] c"copy of dead GC object\00", align 1
@.str.1 = private unnamed_addr constant [24 x i8] c"store to dead GC object\00", align 1

; Function Attrs: alwaysinline nounwind uwtable
define internal void @setgcVraw(ptr noundef %0, ptr noundef %1, i32 noundef %2) #4 {
  %4 = alloca ptr, align 8
  %5 = alloca ptr, align 8
  %6 = alloca i32, align 4
  store ptr %0, ptr %4, align 8, !tbaa !22
  store ptr %1, ptr %5, align 8, !tbaa !67
  store i32 %2, ptr %6, align 4, !tbaa !16
  %7 = load ptr, ptr %5, align 8, !tbaa !67
  %8 = ptrtoint ptr %7 to i64
  %9 = load i32, ptr %6, align 4, !tbaa !16
  %10 = zext i32 %9 to i64
  %11 = shl i64 %10, 47
  %12 = or i64 %8, %11
  %13 = load ptr, ptr %4, align 8, !tbaa !22
  %14 = getelementptr inbounds nuw %struct.GCRef, ptr %13, i32 0, i32 0
  store i64 %12, ptr %14, align 8, !tbaa !26
  ret void
}

; Function Attrs: alwaysinline nounwind uwtable
define internal void @settabV(ptr noundef %0, ptr noundef %1, ptr noundef %2) #4 {
  %4 = alloca ptr, align 8
  %5 = alloca ptr, align 8
  %6 = alloca ptr, align 8
  store ptr %0, ptr %4, align 8, !tbaa !4
  store ptr %1, ptr %5, align 8, !tbaa !22
  store ptr %2, ptr %6, align 8, !tbaa !65
  %7 = load ptr, ptr %4, align 8, !tbaa !4
  %8 = load ptr, ptr %5, align 8, !tbaa !22
  %9 = load ptr, ptr %6, align 8, !tbaa !65
  call void @setgcV(ptr noundef %7, ptr noundef %8, ptr noundef %9, i32 noundef -12)
  ret void
}

; Function Attrs: alwaysinline nounwind uwtable
define internal void @checklivetv(ptr noundef %0, ptr noundef %1, ptr noundef %2) #4 {
  %4 = alloca ptr, align 8
  %5 = alloca ptr, align 8
  %6 = alloca ptr, align 8
  store ptr %0, ptr %4, align 8, !tbaa !4
  store ptr %1, ptr %5, align 8, !tbaa !22
  store ptr %2, ptr %6, align 8, !tbaa !20
  ret void
}

; Function Attrs: alwaysinline nounwind uwtable
define internal void @setgcV(ptr noundef %0, ptr noundef %1, ptr noundef %2, i32 noundef %3) #4 {
  %5 = alloca ptr, align 8
  %6 = alloca ptr, align 8
  %7 = alloca ptr, align 8
  %8 = alloca i32, align 4
  store ptr %0, ptr %5, align 8, !tbaa !4
  store ptr %1, ptr %6, align 8, !tbaa !22
  store ptr %2, ptr %7, align 8, !tbaa !67
  store i32 %3, ptr %8, align 4, !tbaa !16
  %9 = load ptr, ptr %6, align 8, !tbaa !22
  %10 = load ptr, ptr %7, align 8, !tbaa !67
  %11 = load i32, ptr %8, align 4, !tbaa !16
  call void @setgcVraw(ptr noundef %9, ptr noundef %10, i32 noundef %11)
  %12 = load ptr, ptr %5, align 8, !tbaa !4
  %13 = load ptr, ptr %6, align 8, !tbaa !22
  call void @checklivetv(ptr noundef %12, ptr noundef %13, ptr noundef @.str.1)
  ret void
}

; Function Attrs: nounwind uwtable
define internal ptr @index2adr(ptr noundef %0, i32 noundef %1) #0 {
  %3 = alloca ptr, align 8
  %4 = alloca ptr, align 8
  %5 = alloca i32, align 4
  %6 = alloca ptr, align 8
  %7 = alloca ptr, align 8
  %8 = alloca ptr, align 8
  %9 = alloca ptr, align 8
  %10 = alloca i32, align 4
  store ptr %0, ptr %4, align 8, !tbaa !4
  store i32 %1, ptr %5, align 4, !tbaa !16
  %11 = load i32, ptr %5, align 4, !tbaa !16
  %12 = icmp sgt i32 %11, 0
  br i1 %12, label %13, label %38

13:                                               ; preds = %2
  call void @llvm.lifetime.start.p0(i64 8, ptr %6) #9
  %14 = load ptr, ptr %4, align 8, !tbaa !4
  %15 = getelementptr inbounds nuw %struct.lua_State, ptr %14, i32 0, i32 7
  %16 = load ptr, ptr %15, align 8, !tbaa !18
  %17 = load i32, ptr %5, align 4, !tbaa !16
  %18 = sub nsw i32 %17, 1
  %19 = sext i32 %18 to i64
  %20 = getelementptr inbounds %union.TValue, ptr %16, i64 %19
  store ptr %20, ptr %6, align 8, !tbaa !22
  %21 = load ptr, ptr %6, align 8, !tbaa !22
  %22 = load ptr, ptr %4, align 8, !tbaa !4
  %23 = getelementptr inbounds nuw %struct.lua_State, ptr %22, i32 0, i32 8
  %24 = load ptr, ptr %23, align 8, !tbaa !17
  %25 = icmp ult ptr %21, %24
  br i1 %25, label %26, label %28

26:                                               ; preds = %13
  %27 = load ptr, ptr %6, align 8, !tbaa !22
  br label %36

28:                                               ; preds = %13
  %29 = load ptr, ptr %4, align 8, !tbaa !4
  %30 = getelementptr inbounds nuw %struct.lua_State, ptr %29, i32 0, i32 5
  %31 = getelementptr inbounds nuw %struct.MRef, ptr %30, i32 0, i32 0
  %32 = load i64, ptr %31, align 8, !tbaa !29
  %33 = inttoptr i64 %32 to ptr
  %34 = getelementptr inbounds nuw %struct.global_State, ptr %33, i32 0, i32 14
  %35 = getelementptr inbounds nuw %struct.Node, ptr %34, i32 0, i32 0
  br label %36

36:                                               ; preds = %28, %26
  %37 = phi ptr [ %27, %26 ], [ %35, %28 ]
  store ptr %37, ptr %3, align 8
  call void @llvm.lifetime.end.p0(i64 8, ptr %6) #9
  br label %129

38:                                               ; preds = %2
  %39 = load i32, ptr %5, align 4, !tbaa !16
  %40 = icmp sgt i32 %39, -10000
  br i1 %40, label %41, label %48

41:                                               ; preds = %38
  %42 = load ptr, ptr %4, align 8, !tbaa !4
  %43 = getelementptr inbounds nuw %struct.lua_State, ptr %42, i32 0, i32 8
  %44 = load ptr, ptr %43, align 8, !tbaa !17
  %45 = load i32, ptr %5, align 4, !tbaa !16
  %46 = sext i32 %45 to i64
  %47 = getelementptr inbounds %union.TValue, ptr %44, i64 %46
  store ptr %47, ptr %3, align 8
  br label %129

48:                                               ; preds = %38
  %49 = load i32, ptr %5, align 4, !tbaa !16
  %50 = icmp eq i32 %49, -10002
  br i1 %50, label %51, label %66

51:                                               ; preds = %48
  call void @llvm.lifetime.start.p0(i64 8, ptr %7) #9
  %52 = load ptr, ptr %4, align 8, !tbaa !4
  %53 = getelementptr inbounds nuw %struct.lua_State, ptr %52, i32 0, i32 5
  %54 = getelementptr inbounds nuw %struct.MRef, ptr %53, i32 0, i32 0
  %55 = load i64, ptr %54, align 8, !tbaa !29
  %56 = inttoptr i64 %55 to ptr
  %57 = getelementptr inbounds nuw %struct.global_State, ptr %56, i32 0, i32 12
  store ptr %57, ptr %7, align 8, !tbaa !22
  %58 = load ptr, ptr %4, align 8, !tbaa !4
  %59 = load ptr, ptr %7, align 8, !tbaa !22
  %60 = load ptr, ptr %4, align 8, !tbaa !4
  %61 = getelementptr inbounds nuw %struct.lua_State, ptr %60, i32 0, i32 12
  %62 = getelementptr inbounds nuw %struct.GCRef, ptr %61, i32 0, i32 0
  %63 = load i64, ptr %62, align 8, !tbaa !31
  %64 = inttoptr i64 %63 to ptr
  call void @settabV(ptr noundef %58, ptr noundef %59, ptr noundef %64)
  %65 = load ptr, ptr %7, align 8, !tbaa !22
  store ptr %65, ptr %3, align 8
  call void @llvm.lifetime.end.p0(i64 8, ptr %7) #9
  br label %129

66:                                               ; preds = %48
  %67 = load i32, ptr %5, align 4, !tbaa !16
  %68 = icmp eq i32 %67, -10000
  br i1 %68, label %69, label %76

69:                                               ; preds = %66
  %70 = load ptr, ptr %4, align 8, !tbaa !4
  %71 = getelementptr inbounds nuw %struct.lua_State, ptr %70, i32 0, i32 5
  %72 = getelementptr inbounds nuw %struct.MRef, ptr %71, i32 0, i32 0
  %73 = load i64, ptr %72, align 8, !tbaa !29
  %74 = inttoptr i64 %73 to ptr
  %75 = getelementptr inbounds nuw %struct.global_State, ptr %74, i32 0, i32 15
  store ptr %75, ptr %3, align 8
  br label %129

76:                                               ; preds = %66
  call void @llvm.lifetime.start.p0(i64 8, ptr %8) #9
  %77 = load ptr, ptr %4, align 8, !tbaa !4
  %78 = getelementptr inbounds nuw %struct.lua_State, ptr %77, i32 0, i32 7
  %79 = load ptr, ptr %78, align 8, !tbaa !18
  %80 = getelementptr inbounds %union.TValue, ptr %79, i64 -2
  %81 = getelementptr inbounds nuw %struct.GCRef, ptr %80, i32 0, i32 0
  %82 = load i64, ptr %81, align 8, !tbaa !26
  %83 = and i64 %82, 140737488355327
  %84 = inttoptr i64 %83 to ptr
  store ptr %84, ptr %8, align 8, !tbaa !32
  %85 = load i32, ptr %5, align 4, !tbaa !16
  %86 = icmp eq i32 %85, -10001
  br i1 %86, label %87, label %102

87:                                               ; preds = %76
  call void @llvm.lifetime.start.p0(i64 8, ptr %9) #9
  %88 = load ptr, ptr %4, align 8, !tbaa !4
  %89 = getelementptr inbounds nuw %struct.lua_State, ptr %88, i32 0, i32 5
  %90 = getelementptr inbounds nuw %struct.MRef, ptr %89, i32 0, i32 0
  %91 = load i64, ptr %90, align 8, !tbaa !29
  %92 = inttoptr i64 %91 to ptr
  %93 = getelementptr inbounds nuw %struct.global_State, ptr %92, i32 0, i32 12
  store ptr %93, ptr %9, align 8, !tbaa !22
  %94 = load ptr, ptr %4, align 8, !tbaa !4
  %95 = load ptr, ptr %9, align 8, !tbaa !22
  %96 = load ptr, ptr %8, align 8, !tbaa !32
  %97 = getelementptr inbounds nuw %struct.GCfuncC, ptr %96, i32 0, i32 5
  %98 = getelementptr inbounds nuw %struct.GCRef, ptr %97, i32 0, i32 0
  %99 = load i64, ptr %98, align 8, !tbaa !26
  %100 = inttoptr i64 %99 to ptr
  call void @settabV(ptr noundef %94, ptr noundef %95, ptr noundef %100)
  %101 = load ptr, ptr %9, align 8, !tbaa !22
  store ptr %101, ptr %3, align 8
  store i32 1, ptr %10, align 4
  call void @llvm.lifetime.end.p0(i64 8, ptr %9) #9
  br label %128

102:                                              ; preds = %76
  %103 = load i32, ptr %5, align 4, !tbaa !16
  %104 = sub nsw i32 -10002, %103
  store i32 %104, ptr %5, align 4, !tbaa !16
  %105 = load i32, ptr %5, align 4, !tbaa !16
  %106 = load ptr, ptr %8, align 8, !tbaa !32
  %107 = getelementptr inbounds nuw %struct.GCfuncC, ptr %106, i32 0, i32 4
  %108 = load i8, ptr %107, align 1, !tbaa !26
  %109 = zext i8 %108 to i32
  %110 = icmp sle i32 %105, %109
  br i1 %110, label %111, label %118

111:                                              ; preds = %102
  %112 = load ptr, ptr %8, align 8, !tbaa !32
  %113 = getelementptr inbounds nuw %struct.GCfuncC, ptr %112, i32 0, i32 9
  %114 = load i32, ptr %5, align 4, !tbaa !16
  %115 = sub nsw i32 %114, 1
  %116 = sext i32 %115 to i64
  %117 = getelementptr inbounds [1 x %union.TValue], ptr %113, i64 0, i64 %116
  br label %126

118:                                              ; preds = %102
  %119 = load ptr, ptr %4, align 8, !tbaa !4
  %120 = getelementptr inbounds nuw %struct.lua_State, ptr %119, i32 0, i32 5
  %121 = getelementptr inbounds nuw %struct.MRef, ptr %120, i32 0, i32 0
  %122 = load i64, ptr %121, align 8, !tbaa !29
  %123 = inttoptr i64 %122 to ptr
  %124 = getelementptr inbounds nuw %struct.global_State, ptr %123, i32 0, i32 14
  %125 = getelementptr inbounds nuw %struct.Node, ptr %124, i32 0, i32 0
  br label %126

126:                                              ; preds = %118, %111
  %127 = phi ptr [ %117, %111 ], [ %125, %118 ]
  store ptr %127, ptr %3, align 8
  store i32 1, ptr %10, align 4
  br label %128

128:                                              ; preds = %126, %87
  call void @llvm.lifetime.end.p0(i64 8, ptr %8) #9
  br label %129

129:                                              ; preds = %128, %69, %51, %41, %36
  %130 = load ptr, ptr %3, align 8
  ret ptr %130
}

; Function Attrs: alwaysinline nounwind uwtable
define internal void @copyTV(ptr noundef %0, ptr noundef %1, ptr noundef %2) #4 {
  %4 = alloca ptr, align 8
  %5 = alloca ptr, align 8
  %6 = alloca ptr, align 8
  store ptr %0, ptr %4, align 8, !tbaa !4
  store ptr %1, ptr %5, align 8, !tbaa !22
  store ptr %2, ptr %6, align 8, !tbaa !22
  %7 = load ptr, ptr %5, align 8, !tbaa !22
  %8 = load ptr, ptr %6, align 8, !tbaa !22
  call void @llvm.memcpy.p0.p0.i64(ptr align 8 %7, ptr align 8 %8, i64 8, i1 false), !tbaa.struct !25
  %9 = load ptr, ptr %4, align 8, !tbaa !4
  %10 = load ptr, ptr %5, align 8, !tbaa !22
  call void @checklivetv(ptr noundef %9, ptr noundef %10, ptr noundef @.str)
  ret void
}

; Function Attrs: alwaysinline nounwind uwtable
define internal void @setstrV(ptr noundef %0, ptr noundef %1, ptr noundef %2) #4 {
  %4 = alloca ptr, align 8
  %5 = alloca ptr, align 8
  %6 = alloca ptr, align 8
  store ptr %0, ptr %4, align 8, !tbaa !4
  store ptr %1, ptr %5, align 8, !tbaa !22
  store ptr %2, ptr %6, align 8, !tbaa !41
  %7 = load ptr, ptr %4, align 8, !tbaa !4
  %8 = load ptr, ptr %5, align 8, !tbaa !22
  %9 = load ptr, ptr %6, align 8, !tbaa !41
  call void @setgcV(ptr noundef %7, ptr noundef %8, ptr noundef %9, i32 noundef -5)
  ret void
}

; Function Attrs: alwaysinline nounwind uwtable
define internal ptr @index2adr_check(ptr noundef %0, i32 noundef %1) #4 {
  %3 = alloca ptr, align 8
  %4 = alloca i32, align 4
  %5 = alloca ptr, align 8
  store ptr %0, ptr %3, align 8, !tbaa !4
  store i32 %1, ptr %4, align 4, !tbaa !16
  call void @llvm.lifetime.start.p0(i64 8, ptr %5) #9
  %6 = load ptr, ptr %3, align 8, !tbaa !4
  %7 = load i32, ptr %4, align 4, !tbaa !16
  %8 = call ptr @index2adr(ptr noundef %6, i32 noundef %7)
  store ptr %8, ptr %5, align 8, !tbaa !22
  %9 = load ptr, ptr %5, align 8, !tbaa !22
  call void @llvm.lifetime.end.p0(i64 8, ptr %5) #9
  ret ptr %9
}

; Function Attrs: nounwind uwtable
define dso_local void @lua_getfield(ptr noundef %0, i32 noundef %1, ptr noundef %2) #0 {
  %4 = alloca ptr, align 8
  %5 = alloca i32, align 4
  %6 = alloca ptr, align 8
  %7 = alloca ptr, align 8
  %8 = alloca ptr, align 8
  %9 = alloca %union.TValue, align 8
  store ptr %0, ptr %4, align 8, !tbaa !4
  store i32 %1, ptr %5, align 4, !tbaa !16
  store ptr %2, ptr %6, align 8, !tbaa !20
  call void @llvm.lifetime.start.p0(i64 8, ptr %7) #9
  call void @llvm.lifetime.start.p0(i64 8, ptr %8) #9
  %10 = load ptr, ptr %4, align 8, !tbaa !4
  %11 = load i32, ptr %5, align 4, !tbaa !16
  %12 = call ptr @index2adr_check(ptr noundef %10, i32 noundef %11)
  store ptr %12, ptr %8, align 8, !tbaa !22
  call void @llvm.lifetime.start.p0(i64 8, ptr %9) #9
  %13 = load ptr, ptr %4, align 8, !tbaa !4
  %14 = load ptr, ptr %4, align 8, !tbaa !4
  %15 = load ptr, ptr %6, align 8, !tbaa !20
  %16 = load ptr, ptr %6, align 8, !tbaa !20
  %17 = call i64 @strlen(ptr noundef %16) #11
  %18 = call ptr @lj_str_new(ptr noundef %14, ptr noundef %15, i64 noundef %17)
  call void @setstrV(ptr noundef %13, ptr noundef %9, ptr noundef %18)
  %19 = load ptr, ptr %4, align 8, !tbaa !4
  %20 = load ptr, ptr %8, align 8, !tbaa !22
  %21 = call ptr @lj_meta_tget(ptr noundef %19, ptr noundef %20, ptr noundef %9)
  store ptr %21, ptr %7, align 8, !tbaa !22
  %22 = load ptr, ptr %7, align 8, !tbaa !22
  %23 = icmp eq ptr %22, null
  br i1 %23, label %24, label %43

24:                                               ; preds = %3
  %25 = load ptr, ptr %4, align 8, !tbaa !4
  %26 = getelementptr inbounds nuw %struct.lua_State, ptr %25, i32 0, i32 8
  %27 = load ptr, ptr %26, align 8, !tbaa !17
  %28 = getelementptr inbounds %union.TValue, ptr %27, i64 2
  store ptr %28, ptr %26, align 8, !tbaa !17
  %29 = load ptr, ptr %4, align 8, !tbaa !4
  %30 = load ptr, ptr %4, align 8, !tbaa !4
  %31 = getelementptr inbounds nuw %struct.lua_State, ptr %30, i32 0, i32 8
  %32 = load ptr, ptr %31, align 8, !tbaa !17
  %33 = getelementptr inbounds %union.TValue, ptr %32, i64 -2
  call void @lj_vm_call(ptr noundef %29, ptr noundef %33, i32 noundef 2)
  %34 = load ptr, ptr %4, align 8, !tbaa !4
  %35 = getelementptr inbounds nuw %struct.lua_State, ptr %34, i32 0, i32 8
  %36 = load ptr, ptr %35, align 8, !tbaa !17
  %37 = getelementptr inbounds %union.TValue, ptr %36, i64 -3
  store ptr %37, ptr %35, align 8, !tbaa !17
  %38 = load ptr, ptr %4, align 8, !tbaa !4
  %39 = getelementptr inbounds nuw %struct.lua_State, ptr %38, i32 0, i32 8
  %40 = load ptr, ptr %39, align 8, !tbaa !17
  %41 = getelementptr inbounds %union.TValue, ptr %40, i64 1
  %42 = getelementptr inbounds %union.TValue, ptr %41, i64 1
  store ptr %42, ptr %7, align 8, !tbaa !22
  br label %43

43:                                               ; preds = %24, %3
  %44 = load ptr, ptr %4, align 8, !tbaa !4
  %45 = load ptr, ptr %4, align 8, !tbaa !4
  %46 = getelementptr inbounds nuw %struct.lua_State, ptr %45, i32 0, i32 8
  %47 = load ptr, ptr %46, align 8, !tbaa !17
  %48 = load ptr, ptr %7, align 8, !tbaa !22
  call void @copyTV(ptr noundef %44, ptr noundef %47, ptr noundef %48)
  %49 = load ptr, ptr %4, align 8, !tbaa !4
  %50 = getelementptr inbounds nuw %struct.lua_State, ptr %49, i32 0, i32 8
  %51 = load ptr, ptr %50, align 8, !tbaa !17
  %52 = getelementptr inbounds nuw %union.TValue, ptr %51, i32 1
  store ptr %52, ptr %50, align 8, !tbaa !17
  %53 = load ptr, ptr %4, align 8, !tbaa !4
  %54 = getelementptr inbounds nuw %struct.lua_State, ptr %53, i32 0, i32 9
  %55 = getelementptr inbounds nuw %struct.MRef, ptr %54, i32 0, i32 0
  %56 = load i64, ptr %55, align 8, !tbaa !19
  %57 = inttoptr i64 %56 to ptr
  %58 = icmp uge ptr %52, %57
  br i1 %58, label %59, label %61

59:                                               ; preds = %43
  %60 = load ptr, ptr %4, align 8, !tbaa !4
  call void @lj_state_growstack1(ptr noundef %60)
  br label %61

61:                                               ; preds = %59, %43
  call void @llvm.lifetime.end.p0(i64 8, ptr %9) #9
  call void @llvm.lifetime.end.p0(i64 8, ptr %8) #9
  call void @llvm.lifetime.end.p0(i64 8, ptr %7) #9
  ret void
}

; Function Attrs: nounwind uwtable
define dso_local void @luaL_setmetatable(ptr noundef %0, ptr noundef %1) #0 {
  %3 = alloca ptr, align 8
  %4 = alloca ptr, align 8
  store ptr %0, ptr %3, align 8, !tbaa !4
  store ptr %1, ptr %4, align 8, !tbaa !20
  %5 = load ptr, ptr %3, align 8, !tbaa !4
  %6 = load ptr, ptr %4, align 8, !tbaa !20
  call void @lua_getfield(ptr noundef %5, i32 noundef -10000, ptr noundef %6)
  %7 = load ptr, ptr %3, align 8, !tbaa !4
  %8 = call i32 @lua_setmetatable(ptr noundef %7, i32 noundef -2)
  ret void
}