; Function Attrs: nounwind uwtable
define dso_local void @luaL_setmetatable(ptr noundef %0, ptr noundef %1) local_unnamed_addr #1 {
  %3 = alloca %union.TValue, align 8
  %4 = getelementptr inbounds nuw i8, ptr %0, i64 16
  %5 = load i64, ptr %4, align 8, !tbaa !21
  %6 = inttoptr i64 %5 to ptr
  %7 = getelementptr inbounds nuw i8, ptr %6, i64 272
  call void @llvm.lifetime.start.p0(i64 8, ptr nonnull %3) #13
  %8 = tail call i64 @strlen(ptr noundef nonnull dereferenceable(1) %1) #15
  %9 = tail call ptr @lj_str_new(ptr noundef nonnull %0, ptr noundef nonnull %1, i64 noundef %8) #13
  %10 = ptrtoint ptr %9 to i64
  %11 = or i64 %10, -703687441776640
  store i64 %11, ptr %3, align 8, !tbaa !17
  %12 = call ptr @lj_meta_tget(ptr noundef nonnull %0, ptr noundef nonnull %7, ptr noundef nonnull %3) #13
  %13 = icmp eq ptr %12, null
  %14 = getelementptr inbounds nuw i8, ptr %0, i64 40
  %15 = load ptr, ptr %14, align 8, !tbaa !14
  br i1 %13, label %16, label %index2adr.exit._crit_edge.i

16:                                               ; preds = %2
  %17 = getelementptr inbounds nuw i8, ptr %15, i64 16
  store ptr %17, ptr %14, align 8, !tbaa !14
  call void @lj_vm_call(ptr noundef nonnull %0, ptr noundef %15, i32 noundef 2) #13
  %18 = load ptr, ptr %14, align 8, !tbaa !14
  %19 = getelementptr inbounds i8, ptr %18, i64 -24
  store ptr %19, ptr %14, align 8, !tbaa !14
  %20 = getelementptr inbounds i8, ptr %18, i64 -8
  br label %index2adr.exit._crit_edge.i

index2adr.exit._crit_edge.i:                      ; preds = %16, %2
  %21 = phi ptr [ %19, %16 ], [ %15, %2 ]
  %.0.i = phi ptr [ %20, %16 ], [ %12, %2 ]
  %22 = load i64, ptr %.0.i, align 8, !tbaa !17
  store i64 %22, ptr %21, align 8, !tbaa !17
  %23 = load ptr, ptr %14, align 8, !tbaa !14
  %24 = getelementptr inbounds nuw i8, ptr %23, i64 8
  store ptr %24, ptr %14, align 8, !tbaa !14
  %25 = getelementptr inbounds nuw i8, ptr %0, i64 48
  %26 = load i64, ptr %25, align 8, !tbaa !16
  %27 = inttoptr i64 %26 to ptr
  %.not.i = icmp ult ptr %24, %27
  br i1 %.not.i, label %lua_getfield.exit, label %28

28:                                               ; preds = %index2adr.exit._crit_edge.i
  call void @lj_state_growstack1(ptr noundef nonnull %0) #13
  br label %lua_getfield.exit

lua_getfield.exit:                                ; preds = %index2adr.exit._crit_edge.i, %28
  call void @llvm.lifetime.end.p0(i64 8, ptr nonnull %3) #13
  %29 = call i32 @lua_setmetatable(ptr noundef nonnull %0, i32 noundef -2)
  ret void
}